target datalayout = "e-m:e-p270:32:32-p271:32:32-p272:64:64-i64:64-i128:128-f80:128-n8:16:32:64-S128"
target triple = "x86_64-pc-linux-gnu"

; Function Attrs: nounwind uwtable
define dso_local zeroext i1 @safe_strtol(ptr noundef %0, ptr noundef %1) #0 {
  %3 = alloca i1, align 1
  %4 = alloca ptr, align 8
  %5 = alloca ptr, align 8
  %6 = alloca ptr, align 8
  %7 = alloca i64, align 8
  %8 = alloca i32, align 4
  store ptr %0, ptr %4, align 8, !tbaa !4
  store ptr %1, ptr %5, align 8, !tbaa !25
  %9 = call ptr @__errno_location() #9
  store i32 0, ptr %9, align 4, !tbaa !9
  %10 = load ptr, ptr %5, align 8, !tbaa !25
  store i32 0, ptr %10, align 4, !tbaa !9
  call void @llvm.lifetime.start.p0(i64 8, ptr %6) #8
  call void @llvm.lifetime.start.p0(i64 8, ptr %7) #8
  %11 = load ptr, ptr %4, align 8, !tbaa !4
  %12 = call i64 @strtol(ptr noundef %11, ptr noundef %6, i32 noundef 10) #8
  store i64 %12, ptr %7, align 8, !tbaa !17
  %13 = call ptr @__errno_location() #9
  %14 = load i32, ptr %13, align 4, !tbaa !9
  %15 = icmp eq i32 %14, 34
  br i1 %15, label %20, label %16

16:                                               ; preds = %2
  %17 = load ptr, ptr %4, align 8, !tbaa !4
  %18 = load ptr, ptr %6, align 8, !tbaa !4
  %19 = icmp eq ptr %17, %18
  br i1 %19, label %20, label %21

20:                                               ; preds = %16, %2
  store i1 false, ptr %3, align 1
  store i32 1, ptr %8, align 4
  br label %47

21:                                               ; preds = %16
  %22 = call ptr @__ctype_b_loc() #9
  %23 = load ptr, ptr %22, align 8, !tbaa !11
  %24 = load ptr, ptr %6, align 8, !tbaa !4
  %25 = load i8, ptr %24, align 1, !tbaa !19
  %26 = zext i8 %25 to i32
  %27 = sext i32 %26 to i64
  %28 = getelementptr inbounds i16, ptr %23, i64 %27
  %29 = load i16, ptr %28, align 2, !tbaa !13
  %30 = zext i16 %29 to i32
  %31 = and i32 %30, 8192
  %32 = icmp ne i32 %31, 0
  br i1 %32, label %42, label %33

33:                                               ; preds = %21
  %34 = load ptr, ptr %6, align 8, !tbaa !4
  %35 = load i8, ptr %34, align 1, !tbaa !19
  %36 = sext i8 %35 to i32
  %37 = icmp eq i32 %36, 0
  br i1 %37, label %38, label %46

38:                                               ; preds = %33
  %39 = load ptr, ptr %6, align 8, !tbaa !4
  %40 = load ptr, ptr %4, align 8, !tbaa !4
  %41 = icmp ne ptr %39, %40
  br i1 %41, label %42, label %46

42:                                               ; preds = %38, %21
  %43 = load i64, ptr %7, align 8, !tbaa !17
  %44 = trunc i64 %43 to i32
  %45 = load ptr, ptr %5, align 8, !tbaa !25
  store i32 %44, ptr %45, align 4, !tbaa !9
  store i1 true, ptr %3, align 1
  store i32 1, ptr %8, align 4
  br label %47

46:                                               ; preds = %38, %33
  store i1 false, ptr %3, align 1
  store i32 1, ptr %8, align 4
  br label %47

47:                                               ; preds = %46, %42, %20
  call void @llvm.lifetime.end.p0(i64 8, ptr %7) #8
  call void @llvm.lifetime.end.p0(i64 8, ptr %6) #8
  %48 = load i1, ptr %3, align 1
  ret i1 %48
}